; Function Attrs: nounwind sspstrong uwtable
define internal i64 @range_size(i64 noundef %0) #0 {
  %2 = inttoptr i64 %0 to ptr
  %3 = getelementptr inbounds nuw i8, ptr %2, i64 16
  %4 = load i64, ptr %3, align 8, !tbaa !13
  %5 = load i64, ptr %2, align 8, !tbaa !11
  %6 = and i64 %5, 1040384
  %.not.i.i.i = icmp eq i64 %6, 0
  br i1 %.not.i.i.i, label %7, label %RANGE_END.exit

7:                                                ; preds = %1
  %8 = getelementptr inbounds nuw i8, ptr %2, i64 24
  %9 = load ptr, ptr %8, align 8, !tbaa !13
  br label %RANGE_END.exit

RANGE_END.exit:                                   ; preds = %1, %7
  %.0.i.i.i = phi ptr [ %9, %7 ], [ %3, %1 ]
  %10 = getelementptr i8, ptr %.0.i.i.i, i64 8
  %11 = load i64, ptr %10, align 8, !tbaa !7
  %12 = and i64 %4, 1
  %.not.i = icmp eq i64 %12, 0
  br i1 %.not.i, label %13, label %rb_integer_type_p.exit.thread

13:                                               ; preds = %RANGE_END.exit
  %14 = icmp eq i64 %4, 0
  %15 = and i64 %4, 6
  %16 = icmp ne i64 %15, 0
  %17 = or i1 %14, %16
  br i1 %17, label %rb_integer_type_p.exit.thread16, label %rb_integer_type_p.exit

rb_integer_type_p.exit:                           ; preds = %13
  %18 = inttoptr i64 %4 to ptr
  %19 = load i64, ptr %18, align 8, !tbaa !11
  %20 = and i64 %19, 31
  %21 = icmp eq i64 %20, 10
  br i1 %21, label %rb_integer_type_p.exit.thread, label %rb_integer_type_p.exit.thread16

rb_integer_type_p.exit.thread:                    ; preds = %RANGE_END.exit, %rb_integer_type_p.exit
  %22 = load i64, ptr @rb_cNumeric, align 8, !tbaa !7
  %23 = tail call i64 @rb_obj_is_kind_of(i64 noundef %11, i64 noundef %22) #13
  %.not = icmp eq i64 %23, 0
  br i1 %.not, label %36, label %24

24:                                               ; preds = %rb_integer_type_p.exit.thread
  %25 = load i64, ptr %2, align 8, !tbaa !11
  %26 = and i64 %25, 1040384
  %.not.i.i.i12 = icmp eq i64 %26, 0
  br i1 %.not.i.i.i12, label %27, label %RANGE_EXCL.exit

27:                                               ; preds = %24
  %28 = getelementptr inbounds nuw i8, ptr %2, i64 24
  %29 = load ptr, ptr %28, align 8, !tbaa !13
  br label %RANGE_EXCL.exit

RANGE_EXCL.exit:                                  ; preds = %24, %27
  %.0.i.i.i13 = phi ptr [ %29, %27 ], [ %3, %24 ]
  %30 = getelementptr i8, ptr %.0.i.i.i13, i64 16
  %31 = load i64, ptr %30, align 8, !tbaa !7
  %32 = and i64 %31, -5
  %33 = icmp ne i64 %32, 0
  %34 = zext i1 %33 to i32
  %35 = tail call i64 @ruby_num_interval_step_size(i64 noundef %4, i64 noundef %11, i64 noundef 3, i32 noundef %34) #13
  br label %44

36:                                               ; preds = %rb_integer_type_p.exit.thread
  %37 = icmp eq i64 %11, 4
  br i1 %37, label %38, label %rb_integer_type_p.exit.thread16

38:                                               ; preds = %36
  %39 = tail call i64 @rb_float_new_in_heap(double noundef 0x7FF0000000000000) #13
  br label %44

rb_integer_type_p.exit.thread16:                  ; preds = %13, %36, %rb_integer_type_p.exit
  %40 = tail call i32 @rb_respond_to(i64 noundef %4, i64 noundef 3057) #13
  %.not11 = icmp eq i32 %40, 0
  br i1 %.not11, label %41, label %44

41:                                               ; preds = %rb_integer_type_p.exit.thread16
  %42 = load i64, ptr @rb_eTypeError, align 8, !tbaa !7
  %43 = tail call ptr @rb_obj_classname(i64 noundef %4) #13
  tail call void (i64, ptr, ...) @rb_raise(i64 noundef %42, ptr noundef nonnull @.str.37, ptr noundef %43) #14
  unreachable

44:                                               ; preds = %rb_integer_type_p.exit.thread16, %38, %RANGE_EXCL.exit
  %.0 = phi i64 [ %35, %RANGE_EXCL.exit ], [ %39, %38 ], [ 4, %rb_integer_type_p.exit.thread16 ]
  ret i64 %.0
}